target datalayout = "e-m:e-p270:32:32-p271:32:32-p272:64:64-i64:64-i128:128-f80:128-n8:16:32:64-S128"
target triple = "x86_64-pc-linux-gnu"

%struct.H5G_fh_ud_lbi_t = type { ptr, ptr }

@.str = private unnamed_addr constant [102 x i8] c"generated/home/dtcxzyw/WorkSpace/Projects/compilers/llvm-opt-benchmark/bench/hdf5/hdf5/src/H5Gdense.c\00", align 1
@H5E_SYM_g = external global i64, align 8
@H5E_CANTCOPY_g = external global i64, align 8
@.str.26 = private unnamed_addr constant [24 x i8] c"can't copy link message\00", align 1
@__func__.H5G__dense_lookup_by_idx_fh_cb = private unnamed_addr constant [31 x i8] c"H5G__dense_lookup_by_idx_fh_cb\00", align 1
@H5E_CANTDECODE_g = external global i64, align 8
@.str.42 = private unnamed_addr constant [18 x i8] c"can't decode link\00", align 1

; Function Attrs: nounwind uwtable
define internal i32 @H5G__dense_lookup_by_idx_fh_cb(ptr noundef %0, i64 noundef %1, ptr noundef %2) #0 {
  %4 = alloca ptr, align 8
  %5 = alloca i64, align 8
  %6 = alloca ptr, align 8
  %7 = alloca ptr, align 8
  %8 = alloca ptr, align 8
  %9 = alloca i32, align 4
  %10 = alloca i8, align 1
  store ptr %0, ptr %4, align 8
  store i64 %1, ptr %5, align 8
  store ptr %2, ptr %6, align 8
  %11 = load ptr, ptr %6, align 8
  store ptr %11, ptr %7, align 8
  store ptr null, ptr %8, align 8
  store i32 0, ptr %9, align 4
  store i8 0, ptr %10, align 1
  %12 = load ptr, ptr %7, align 8
  %13 = getelementptr inbounds %struct.H5G_fh_ud_lbi_t, ptr %12, i32 0, i32 0
  %14 = load ptr, ptr %13, align 8
  %15 = load i64, ptr %5, align 8
  %16 = load ptr, ptr %4, align 8
  %17 = call ptr @H5O_msg_decode(ptr noundef %14, ptr noundef null, i32 noundef 6, i64 noundef %15, ptr noundef %16)
  store ptr %17, ptr %8, align 8
  %18 = icmp eq ptr null, %17
  br i1 %18, label %19, label %34

19:                                               ; preds = %3
  br label %20

20:                                               ; preds = %19
  br label %21

21:                                               ; preds = %20
  br label %22

22:                                               ; preds = %21
  %23 = load i64, ptr @H5E_SYM_g, align 8
  %24 = load i64, ptr @H5E_CANTDECODE_g, align 8
  %25 = call i32 (ptr, ptr, i32, i64, i64, ptr, ...) @H5E_printf_stack(ptr noundef @.str, ptr noundef @__func__.H5G__dense_lookup_by_idx_fh_cb, i32 noundef 545, i64 noundef %23, i64 noundef %24, ptr noundef @.str.42)
  br label %26

26:                                               ; preds = %22
  store i8 1, ptr %10, align 1
  %27 = load i8, ptr %10, align 1
  %28 = trunc i8 %27 to i1
  %29 = zext i1 %28 to i8
  store i8 %29, ptr %10, align 1
  br label %30

30:                                               ; preds = %26
  br label %31

31:                                               ; preds = %30
  store i32 -1, ptr %9, align 4
  br label %57

32:                                               ; No predecessors!
  br label %33

33:                                               ; preds = %32
  br label %34

34:                                               ; preds = %33, %3
  %35 = load ptr, ptr %8, align 8
  %36 = load ptr, ptr %7, align 8
  %37 = getelementptr inbounds %struct.H5G_fh_ud_lbi_t, ptr %36, i32 0, i32 1
  %38 = load ptr, ptr %37, align 8
  %39 = call ptr @H5O_msg_copy(i32 noundef 6, ptr noundef %35, ptr noundef %38)
  %40 = icmp eq ptr null, %39
  br i1 %40, label %41, label %56

41:                                               ; preds = %34
  br label %42

42:                                               ; preds = %41
  br label %43

43:                                               ; preds = %42
  br label %44

44:                                               ; preds = %43
  %45 = load i64, ptr @H5E_SYM_g, align 8
  %46 = load i64, ptr @H5E_CANTCOPY_g, align 8
  %47 = call i32 (ptr, ptr, i32, i64, i64, ptr, ...) @H5E_printf_stack(ptr noundef @.str, ptr noundef @__func__.H5G__dense_lookup_by_idx_fh_cb, i32 noundef 549, i64 noundef %45, i64 noundef %46, ptr noundef @.str.26)
  br label %48

48:                                               ; preds = %44
  store i8 1, ptr %10, align 1
  %49 = load i8, ptr %10, align 1
  %50 = trunc i8 %49 to i1
  %51 = zext i1 %50 to i8
  store i8 %51, ptr %10, align 1
  br label %52

52:                                               ; preds = %48
  br label %53

53:                                               ; preds = %52
  store i32 -1, ptr %9, align 4
  br label %57

54:                                               ; No predecessors!
  br label %55

55:                                               ; preds = %54
  br label %56

56:                                               ; preds = %55, %34
  br label %57

57:                                               ; preds = %56, %53, %31
  %58 = load ptr, ptr %8, align 8
  %59 = icmp ne ptr %58, null
  br i1 %59, label %60, label %63

60:                                               ; preds = %57
  %61 = load ptr, ptr %8, align 8
  %62 = call ptr @H5O_msg_free(i32 noundef 6, ptr noundef %61)
  br label %63

63:                                               ; preds = %60, %57
  %64 = load i32, ptr %9, align 4
  ret i32 %64
}