; Function Attrs: nounwind uwtable
define internal range(i32 -1, 1) i32 @H5G__dense_lookup_by_idx_fh_cb(ptr noundef %0, i64 noundef %1, ptr nocapture noundef readonly %2) #0 {
  %4 = load ptr, ptr %2, align 8
  %5 = tail call ptr @H5O_msg_decode(ptr noundef %4, ptr noundef null, i32 noundef 6, i64 noundef %1, ptr noundef %0) #8
  %6 = icmp eq ptr %5, null
  br i1 %6, label %16, label %7

7:                                                ; preds = %3
  %8 = getelementptr inbounds i8, ptr %2, i64 8
  %9 = load ptr, ptr %8, align 8
  %10 = tail call ptr @H5O_msg_copy(i32 noundef 6, ptr noundef nonnull %5, ptr noundef %9) #8
  %11 = icmp eq ptr %10, null
  br i1 %11, label %12, label %20

12:                                               ; preds = %7
  %13 = load i64, ptr @H5E_SYM_g, align 8
  %14 = load i64, ptr @H5E_CANTCOPY_g, align 8
  %15 = tail call i32 (ptr, ptr, i32, i64, i64, ptr, ...) @H5E_printf_stack(ptr noundef nonnull @.str, ptr noundef nonnull @__func__.H5G__dense_lookup_by_idx_fh_cb, i32 noundef 549, i64 noundef %13, i64 noundef %14, ptr noundef nonnull @.str.26) #8
  br label %20

16:                                               ; preds = %3
  %17 = load i64, ptr @H5E_SYM_g, align 8
  %18 = load i64, ptr @H5E_CANTDECODE_g, align 8
  %19 = tail call i32 (ptr, ptr, i32, i64, i64, ptr, ...) @H5E_printf_stack(ptr noundef nonnull @.str, ptr noundef nonnull @__func__.H5G__dense_lookup_by_idx_fh_cb, i32 noundef 545, i64 noundef %17, i64 noundef %18, ptr noundef nonnull @.str.42) #8
  br label %22

20:                                               ; preds = %7, %12
  %.0.ph = phi i32 [ 0, %7 ], [ -1, %12 ]
  %21 = tail call ptr @H5O_msg_free(i32 noundef 6, ptr noundef nonnull %5) #8
  br label %22

22:                                               ; preds = %16, %20
  %.013 = phi i32 [ %.0.ph, %20 ], [ -1, %16 ]
  ret i32 %.013
}